target datalayout = "e-m:e-p270:32:32-p271:32:32-p272:64:64-i64:64-i128:128-f80:128-n8:16:32:64-S128"
target triple = "x86_64-pc-linux-gnu"

@.str.67 = private unnamed_addr constant [16 x i8] c"TALOS-2023-1783\00", align 1

; Function Attrs: mustprogress uwtable
define internal noundef i64 @_ZL17fstReaderVarint64P8_IO_FILE(ptr noundef %0) #0 {
  %2 = alloca ptr, align 8
  %3 = alloca i32, align 4
  %4 = alloca i32, align 4
  %5 = alloca [16 x i8], align 16
  %6 = alloca ptr, align 8
  %7 = alloca i64, align 8
  %8 = alloca i32, align 4
  store ptr %0, ptr %2, align 8, !tbaa !33
  call void @llvm.lifetime.start.p0(i64 4, ptr %3) #15
  store i32 16, ptr %3, align 4, !tbaa !11
  call void @llvm.lifetime.start.p0(i64 4, ptr %4) #15
  store i32 16, ptr %4, align 4, !tbaa !11
  call void @llvm.lifetime.start.p0(i64 16, ptr %5) #15
  call void @llvm.lifetime.start.p0(i64 8, ptr %6) #15
  %9 = getelementptr inbounds [16 x i8], ptr %5, i64 0, i64 0
  store ptr %9, ptr %6, align 8, !tbaa !6
  call void @llvm.lifetime.start.p0(i64 8, ptr %7) #15
  store i64 0, ptr %7, align 8, !tbaa !35
  call void @llvm.lifetime.start.p0(i64 4, ptr %8) #15
  br label %10

10:                                               ; preds = %25, %1
  %11 = load ptr, ptr %2, align 8, !tbaa !33
  %12 = call i32 @fgetc(ptr noundef %11)
  store i32 %12, ptr %8, align 4, !tbaa !11
  %13 = load i32, ptr %8, align 4, !tbaa !11
  %14 = trunc i32 %13 to i8
  %15 = load ptr, ptr %6, align 8, !tbaa !6
  %16 = getelementptr inbounds nuw i8, ptr %15, i32 1
  store ptr %16, ptr %6, align 8, !tbaa !6
  store i8 %14, ptr %15, align 1, !tbaa !34
  br label %17

17:                                               ; preds = %10
  %18 = load i32, ptr %8, align 4, !tbaa !11
  %19 = and i32 %18, 128
  %20 = icmp ne i32 %19, 0
  br i1 %20, label %21, label %25

21:                                               ; preds = %17
  %22 = load i32, ptr %4, align 4, !tbaa !11
  %23 = add nsw i32 %22, -1
  store i32 %23, ptr %4, align 4, !tbaa !11
  %24 = icmp ne i32 %23, 0
  br label %25

25:                                               ; preds = %21, %17
  %26 = phi i1 [ false, %17 ], [ %24, %21 ]
  br i1 %26, label %10, label %27, !llvm.loop !190

27:                                               ; preds = %25
  %28 = load i32, ptr %8, align 4, !tbaa !11
  %29 = and i32 %28, 128
  %30 = icmp ne i32 %29, 0
  br i1 %30, label %31, label %32

31:                                               ; preds = %27
  call void @_ZL16chk_report_abortPKc(ptr noundef @.str.67)
  br label %32

32:                                               ; preds = %31, %27
  %33 = load ptr, ptr %6, align 8, !tbaa !6
  %34 = getelementptr inbounds i8, ptr %33, i32 -1
  store ptr %34, ptr %6, align 8, !tbaa !6
  br label %35

35:                                               ; preds = %49, %32
  %36 = load i64, ptr %7, align 8, !tbaa !35
  %37 = shl i64 %36, 7
  store i64 %37, ptr %7, align 8, !tbaa !35
  %38 = load ptr, ptr %6, align 8, !tbaa !6
  %39 = load i8, ptr %38, align 1, !tbaa !34
  %40 = zext i8 %39 to i32
  %41 = and i32 %40, 127
  %42 = sext i32 %41 to i64
  %43 = load i64, ptr %7, align 8, !tbaa !35
  %44 = or i64 %43, %42
  store i64 %44, ptr %7, align 8, !tbaa !35
  %45 = load ptr, ptr %6, align 8, !tbaa !6
  %46 = getelementptr inbounds [16 x i8], ptr %5, i64 0, i64 0
  %47 = icmp eq ptr %45, %46
  br i1 %47, label %48, label %49

48:                                               ; preds = %35
  br label %52

49:                                               ; preds = %35
  %50 = load ptr, ptr %6, align 8, !tbaa !6
  %51 = getelementptr inbounds i8, ptr %50, i32 -1
  store ptr %51, ptr %6, align 8, !tbaa !6
  br label %35, !llvm.loop !191

52:                                               ; preds = %48
  %53 = load i64, ptr %7, align 8, !tbaa !35
  call void @llvm.lifetime.end.p0(i64 4, ptr %8) #15
  call void @llvm.lifetime.end.p0(i64 8, ptr %7) #15
  call void @llvm.lifetime.end.p0(i64 8, ptr %6) #15
  call void @llvm.lifetime.end.p0(i64 16, ptr %5) #15
  call void @llvm.lifetime.end.p0(i64 4, ptr %4) #15
  call void @llvm.lifetime.end.p0(i64 4, ptr %3) #15
  ret i64 %53
}