; Function Attrs: mustprogress nofree nounwind uwtable
define internal fastcc noundef i64 @_ZL17fstReaderVarint64P8_IO_FILE(ptr noundef captures(none) %0) unnamed_addr #14 {
  %2 = alloca [16 x i8], align 16
  call void @llvm.lifetime.start.p0(i64 16, ptr nonnull %2) #39
  br label %3

3:                                                ; preds = %3, %1
  %.013 = phi ptr [ %2, %1 ], [ %7, %3 ]
  %.0 = phi i32 [ 16, %1 ], [ %8, %3 ]
  %4 = tail call i32 @fgetc(ptr noundef %0)
  %5 = trunc i32 %4 to i8
  store i8 %5, ptr %.013, align 1, !tbaa !6
  %6 = and i32 %4, 128
  %.not = icmp eq i32 %6, 0
  %7 = getelementptr inbounds nuw i8, ptr %.013, i64 1
  %8 = add nsw i32 %.0, -1
  %.not16 = icmp eq i32 %8, 0
  %or.cond = select i1 %.not, i1 true, i1 %.not16
  br i1 %or.cond, label %.critedge, label %3, !llvm.loop !169

.critedge:                                        ; preds = %3
  br i1 %.not, label %.preheader, label %9

9:                                                ; preds = %.critedge
  tail call fastcc void @_ZL16chk_report_abortPKc(ptr noundef nonnull @.str.67)
  unreachable

.preheader:                                       ; preds = %.critedge, %.preheader
  %.1 = phi ptr [ %16, %.preheader ], [ %.013, %.critedge ]
  %.012 = phi i64 [ %14, %.preheader ], [ 0, %.critedge ]
  %10 = shl i64 %.012, 7
  %11 = load i8, ptr %.1, align 1, !tbaa !6
  %12 = and i8 %11, 127
  %13 = zext nneg i8 %12 to i64
  %14 = or disjoint i64 %10, %13
  %15 = icmp eq ptr %.1, %2
  %16 = getelementptr inbounds i8, ptr %.1, i64 -1
  br i1 %15, label %17, label %.preheader, !llvm.loop !170

17:                                               ; preds = %.preheader
  call void @llvm.lifetime.end.p0(i64 16, ptr nonnull %2) #39
  ret i64 %14
}